; ModuleID = '22/90.c'
source_filename = "22/90.c"
target datalayout = "e-m:e-p270:32:32-p271:32:32-p272:64:64-i64:64-f80:128-n8:16:32:64-S128"
target triple = "x86_64-pc-linux-gnu"

@.str = private unnamed_addr constant [3 x i8] c"%d\00", align 1
@.str.1 = private unnamed_addr constant [3 x i8] c"No\00", align 1

; Function Attrs: noinline nounwind uwtable
define dso_local void @main() #0 {
  %1 = alloca [300 x i8], align 16
  %2 = alloca [300 x i32], align 16
  %3 = alloca i32, align 4
  %4 = alloca i32, align 4
  %5 = alloca i32, align 4
  %6 = alloca i32, align 4
  %7 = alloca i32, align 4
  %8 = alloca i32, align 4
  %9 = alloca i32, align 4
  %10 = bitcast [300 x i32]* %2 to i8*
  call void @llvm.memset.p0i8.i64(i8* align 16 %10, i8 0, i64 1200, i1 false)
  store i32 0, i32* %5, align 4
  store i32 0, i32* %6, align 4
  store i32 0, i32* %9, align 4
  %11 = getelementptr inbounds [300 x i8], [300 x i8]* %1, i64 0, i64 0
  %12 = call i32 (i8*, ...) bitcast (i32 (...)* @gets to i32 (i8*, ...)*)(i8* %11)
  store i32 0, i32* %3, align 4
  br label %13

13:                                               ; preds = %108, %0
  %14 = load i32, i32* %3, align 4
  %15 = sext i32 %14 to i64
  %16 = getelementptr inbounds [300 x i8], [300 x i8]* %1, i64 0, i64 %15
  %17 = load i8, i8* %16, align 1
  %18 = sext i8 %17 to i32
  %19 = icmp ne i32 %18, 0
  br i1 %19, label %20, label %111

20:                                               ; preds = %13
  %21 = load i32, i32* %3, align 4
  %22 = sext i32 %21 to i64
  %23 = getelementptr inbounds [300 x i8], [300 x i8]* %1, i64 0, i64 %22
  %24 = load i8, i8* %23, align 1
  %25 = sext i8 %24 to i32
  %26 = icmp sge i32 %25, 48
  br i1 %26, label %27, label %60

27:                                               ; preds = %20
  %28 = load i32, i32* %3, align 4
  %29 = sext i32 %28 to i64
  %30 = getelementptr inbounds [300 x i8], [300 x i8]* %1, i64 0, i64 %29
  %31 = load i8, i8* %30, align 1
  %32 = sext i8 %31 to i32
  %33 = icmp sle i32 %32, 57
  br i1 %33, label %34, label %60

34:                                               ; preds = %27
  %35 = load i32, i32* %3, align 4
  %36 = add nsw i32 %35, 1
  %37 = sext i32 %36 to i64
  %38 = getelementptr inbounds [300 x i8], [300 x i8]* %1, i64 0, i64 %37
  %39 = load i8, i8* %38, align 1
  %40 = sext i8 %39 to i32
  %41 = icmp sge i32 %40, 48
  br i1 %41, label %42, label %60

42:                                               ; preds = %34
  %43 = load i32, i32* %3, align 4
  %44 = add nsw i32 %43, 1
  %45 = sext i32 %44 to i64
  %46 = getelementptr inbounds [300 x i8], [300 x i8]* %1, i64 0, i64 %45
  %47 = load i8, i8* %46, align 1
  %48 = sext i8 %47 to i32
  %49 = icmp sle i32 %48, 57
  br i1 %49, label %50, label %60

50:                                               ; preds = %42
  %51 = load i32, i32* %5, align 4
  %52 = mul nsw i32 %51, 10
  %53 = load i32, i32* %3, align 4
  %54 = sext i32 %53 to i64
  %55 = getelementptr inbounds [300 x i8], [300 x i8]* %1, i64 0, i64 %54
  %56 = load i8, i8* %55, align 1
  %57 = sext i8 %56 to i32
  %58 = add nsw i32 %52, %57
  %59 = sub nsw i32 %58, 48
  store i32 %59, i32* %5, align 4
  br label %107

60:                                               ; preds = %42, %34, %27, %20
  %61 = load i32, i32* %3, align 4
  %62 = sext i32 %61 to i64
  %63 = getelementptr inbounds [300 x i8], [300 x i8]* %1, i64 0, i64 %62
  %64 = load i8, i8* %63, align 1
  %65 = sext i8 %64 to i32
  %66 = icmp sge i32 %65, 48
  br i1 %66, label %67, label %106

67:                                               ; preds = %60
  %68 = load i32, i32* %3, align 4
  %69 = sext i32 %68 to i64
  %70 = getelementptr inbounds [300 x i8], [300 x i8]* %1, i64 0, i64 %69
  %71 = load i8, i8* %70, align 1
  %72 = sext i8 %71 to i32
  %73 = icmp sle i32 %72, 57
  br i1 %73, label %74, label %106

74:                                               ; preds = %67
  %75 = load i32, i32* %3, align 4
  %76 = add nsw i32 %75, 1
  %77 = sext i32 %76 to i64
  %78 = getelementptr inbounds [300 x i8], [300 x i8]* %1, i64 0, i64 %77
  %79 = load i8, i8* %78, align 1
  %80 = sext i8 %79 to i32
  %81 = icmp slt i32 %80, 48
  br i1 %81, label %90, label %82

82:                                               ; preds = %74
  %83 = load i32, i32* %3, align 4
  %84 = add nsw i32 %83, 1
  %85 = sext i32 %84 to i64
  %86 = getelementptr inbounds [300 x i8], [300 x i8]* %1, i64 0, i64 %85
  %87 = load i8, i8* %86, align 1
  %88 = sext i8 %87 to i32
  %89 = icmp sgt i32 %88, 57
  br i1 %89, label %90, label %106

90:                                               ; preds = %82, %74
  %91 = load i32, i32* %5, align 4
  %92 = mul nsw i32 %91, 10
  %93 = load i32, i32* %3, align 4
  %94 = sext i32 %93 to i64
  %95 = getelementptr inbounds [300 x i8], [300 x i8]* %1, i64 0, i64 %94
  %96 = load i8, i8* %95, align 1
  %97 = sext i8 %96 to i32
  %98 = add nsw i32 %92, %97
  %99 = sub nsw i32 %98, 48
  store i32 %99, i32* %5, align 4
  %100 = load i32, i32* %5, align 4
  %101 = load i32, i32* %6, align 4
  %102 = sext i32 %101 to i64
  %103 = getelementptr inbounds [300 x i32], [300 x i32]* %2, i64 0, i64 %102
  store i32 %100, i32* %103, align 4
  %104 = load i32, i32* %6, align 4
  %105 = add nsw i32 %104, 1
  store i32 %105, i32* %6, align 4
  store i32 0, i32* %5, align 4
  br label %106

106:                                              ; preds = %90, %82, %67, %60
  br label %107

107:                                              ; preds = %106, %50
  br label %108

108:                                              ; preds = %107
  %109 = load i32, i32* %3, align 4
  %110 = add nsw i32 %109, 1
  store i32 %110, i32* %3, align 4
  br label %13

111:                                              ; preds = %13
  %112 = load i32, i32* %6, align 4
  %113 = sub nsw i32 %112, 1
  store i32 %113, i32* %6, align 4
  store i32 0, i32* %4, align 4
  br label %114

114:                                              ; preds = %159, %111
  %115 = load i32, i32* %4, align 4
  %116 = load i32, i32* %6, align 4
  %117 = icmp slt i32 %115, %116
  br i1 %117, label %118, label %162

118:                                              ; preds = %114
  store i32 0, i32* %3, align 4
  br label %119

119:                                              ; preds = %155, %118
  %120 = load i32, i32* %3, align 4
  %121 = load i32, i32* %6, align 4
  %122 = load i32, i32* %4, align 4
  %123 = sub nsw i32 %121, %122
  %124 = icmp slt i32 %120, %123
  br i1 %124, label %125, label %158

125:                                              ; preds = %119
  %126 = load i32, i32* %3, align 4
  %127 = sext i32 %126 to i64
  %128 = getelementptr inbounds [300 x i32], [300 x i32]* %2, i64 0, i64 %127
  %129 = load i32, i32* %128, align 4
  %130 = load i32, i32* %3, align 4
  %131 = add nsw i32 %130, 1
  %132 = sext i32 %131 to i64
  %133 = getelementptr inbounds [300 x i32], [300 x i32]* %2, i64 0, i64 %132
  %134 = load i32, i32* %133, align 4
  %135 = icmp slt i32 %129, %134
  br i1 %135, label %136, label %154

136:                                              ; preds = %125
  %137 = load i32, i32* %3, align 4
  %138 = sext i32 %137 to i64
  %139 = getelementptr inbounds [300 x i32], [300 x i32]* %2, i64 0, i64 %138
  %140 = load i32, i32* %139, align 4
  store i32 %140, i32* %7, align 4
  %141 = load i32, i32* %3, align 4
  %142 = add nsw i32 %141, 1
  %143 = sext i32 %142 to i64
  %144 = getelementptr inbounds [300 x i32], [300 x i32]* %2, i64 0, i64 %143
  %145 = load i32, i32* %144, align 4
  %146 = load i32, i32* %3, align 4
  %147 = sext i32 %146 to i64
  %148 = getelementptr inbounds [300 x i32], [300 x i32]* %2, i64 0, i64 %147
  store i32 %145, i32* %148, align 4
  %149 = load i32, i32* %7, align 4
  %150 = load i32, i32* %3, align 4
  %151 = add nsw i32 %150, 1
  %152 = sext i32 %151 to i64
  %153 = getelementptr inbounds [300 x i32], [300 x i32]* %2, i64 0, i64 %152
  store i32 %149, i32* %153, align 4
  br label %154

154:                                              ; preds = %136, %125
  br label %155

155:                                              ; preds = %154
  %156 = load i32, i32* %3, align 4
  %157 = add nsw i32 %156, 1
  store i32 %157, i32* %3, align 4
  br label %119

158:                                              ; preds = %119
  br label %159

159:                                              ; preds = %158
  %160 = load i32, i32* %4, align 4
  %161 = add nsw i32 %160, 1
  store i32 %161, i32* %4, align 4
  br label %114

162:                                              ; preds = %114
  store i32 0, i32* %3, align 4
  br label %163

163:                                              ; preds = %188, %162
  %164 = load i32, i32* %3, align 4
  %165 = load i32, i32* %6, align 4
  %166 = sub nsw i32 %165, 1
  %167 = icmp sle i32 %164, %166
  br i1 %167, label %168, label %191

168:                                              ; preds = %163
  store i32 1, i32* %4, align 4
  br label %169

169:                                              ; preds = %184, %168
  %170 = load i32, i32* %4, align 4
  %171 = load i32, i32* %6, align 4
  %172 = icmp sle i32 %170, %171
  br i1 %172, label %173, label %187

173:                                              ; preds = %169
  %174 = load i32, i32* %4, align 4
  %175 = sext i32 %174 to i64
  %176 = getelementptr inbounds [300 x i32], [300 x i32]* %2, i64 0, i64 %175
  %177 = load i32, i32* %176, align 4
  %178 = getelementptr inbounds [300 x i32], [300 x i32]* %2, i64 0, i64 0
  %179 = load i32, i32* %178, align 16
  %180 = icmp ne i32 %177, %179
  br i1 %180, label %181, label %183

181:                                              ; preds = %173
  %182 = load i32, i32* %4, align 4
  store i32 %182, i32* %8, align 4
  store i32 1, i32* %9, align 4
  br label %187

183:                                              ; preds = %173
  br label %184

184:                                              ; preds = %183
  %185 = load i32, i32* %4, align 4
  %186 = add nsw i32 %185, 1
  store i32 %186, i32* %4, align 4
  br label %169

187:                                              ; preds = %181, %169
  br label %188

188:                                              ; preds = %187
  %189 = load i32, i32* %3, align 4
  %190 = add nsw i32 %189, 1
  store i32 %190, i32* %3, align 4
  br label %163

191:                                              ; preds = %163
  %192 = load i32, i32* %9, align 4
  %193 = icmp eq i32 %192, 1
  br i1 %193, label %194, label %200

194:                                              ; preds = %191
  %195 = load i32, i32* %8, align 4
  %196 = sext i32 %195 to i64
  %197 = getelementptr inbounds [300 x i32], [300 x i32]* %2, i64 0, i64 %196
  %198 = load i32, i32* %197, align 4
  %199 = call i32 (i8*, ...) @printf(i8* getelementptr inbounds ([3 x i8], [3 x i8]* @.str, i64 0, i64 0), i32 %198)
  br label %200

200:                                              ; preds = %194, %191
  %201 = load i32, i32* %9, align 4
  %202 = icmp eq i32 %201, 0
  br i1 %202, label %203, label %205

203:                                              ; preds = %200
  %204 = call i32 (i8*, ...) @printf(i8* getelementptr inbounds ([3 x i8], [3 x i8]* @.str.1, i64 0, i64 0))
  br label %205

205:                                              ; preds = %203, %200
  ret void
}

; Function Attrs: argmemonly nounwind willreturn
declare void @llvm.memset.p0i8.i64(i8* nocapture writeonly, i8, i64, i1 immarg) #1

declare dso_local i32 @gets(...) #2

declare dso_local i32 @printf(i8*, ...) #2


!llvm.module.flags = !{!0}
!llvm.ident = !{!1}

!0 = !{i32 1, !"wchar_size", i32 4}
!1 = !{!"clang version 10.0.0-4ubuntu1 "}
